target datalayout = "e-m:e-p270:32:32-p271:32:32-p272:64:64-i64:64-i128:128-f80:128-n8:16:32:64-S128"
target triple = "x86_64-pc-linux-gnu"

%struct.nstime_t = type { i64, i32 }
%struct._packet_info = type { ptr, ptr, i32, i32, %struct.nstime_t, %struct.nstime_t, %struct.nstime_t, i8, ptr, ptr, ptr, ptr, %struct._address, %struct._address, %struct._address, %struct._address, %struct._address, %struct._address, i32, ptr, i8, [3 x i8], %struct.anon, i32, i32, i32, i32, ptr, i8, ptr, ptr, i16, i16, i32, i32, i16, i32, i32, ptr, ptr, ptr, i8, i8, i16, i16, i16, i32, i16, i16, ptr, ptr, ptr, ptr, ptr, i32, i32 }
%struct._address = type { i32, i32, ptr, ptr }
%struct.anon = type { i8, [3 x i8] }

@.str.4688 = private unnamed_addr constant [6 x i8] c" (%s)\00", align 1

; Function Attrs: null_pointer_is_valid sspstrong uwtable
define internal void @netflow_add_transport_info(ptr noundef %0, i64 noundef %1, i8 noundef zeroext %2, i16 noundef zeroext %3, ptr noundef %4) #0 {
  %6 = alloca ptr, align 8
  %7 = alloca i64, align 8
  %8 = alloca i8, align 1
  %9 = alloca i16, align 2
  %10 = alloca ptr, align 8
  %11 = alloca ptr, align 8
  %12 = alloca i32, align 4
  store ptr %0, ptr %6, align 8
  store i64 %1, ptr %7, align 8
  store i8 %2, ptr %8, align 1
  store i16 %3, ptr %9, align 2
  store ptr %4, ptr %10, align 8
  call void @llvm.lifetime.start.p0(i64 8, ptr %11) #16
  %13 = load i8, ptr %8, align 1
  %14 = zext i8 %13 to i32
  %15 = icmp eq i32 %14, 17
  br i1 %15, label %22, label %16

16:                                               ; preds = %5
  %17 = load i64, ptr %7, align 8
  %18 = icmp eq i64 %17, 180
  br i1 %18, label %22, label %19

19:                                               ; preds = %16
  %20 = load i64, ptr %7, align 8
  %21 = icmp eq i64 %20, 181
  br i1 %21, label %22, label %29

22:                                               ; preds = %19, %16, %5
  %23 = load ptr, ptr %6, align 8
  %24 = getelementptr inbounds nuw %struct._packet_info, ptr %23, i32 0, i32 51
  %25 = load ptr, ptr %24, align 8
  %26 = load i16, ptr %9, align 2
  %27 = zext i16 %26 to i32
  %28 = call ptr @udp_port_to_display(ptr noundef %25, i32 noundef %27)
  store ptr %28, ptr %11, align 8
  br label %60

29:                                               ; preds = %19
  %30 = load i8, ptr %8, align 1
  %31 = zext i8 %30 to i32
  %32 = icmp eq i32 %31, 6
  br i1 %32, label %39, label %33

33:                                               ; preds = %29
  %34 = load i64, ptr %7, align 8
  %35 = icmp eq i64 %34, 182
  br i1 %35, label %39, label %36

36:                                               ; preds = %33
  %37 = load i64, ptr %7, align 8
  %38 = icmp eq i64 %37, 183
  br i1 %38, label %39, label %46

39:                                               ; preds = %36, %33, %29
  %40 = load ptr, ptr %6, align 8
  %41 = getelementptr inbounds nuw %struct._packet_info, ptr %40, i32 0, i32 51
  %42 = load ptr, ptr %41, align 8
  %43 = load i16, ptr %9, align 2
  %44 = zext i16 %43 to i32
  %45 = call ptr @tcp_port_to_display(ptr noundef %42, i32 noundef %44)
  store ptr %45, ptr %11, align 8
  br label %59

46:                                               ; preds = %36
  %47 = load i8, ptr %8, align 1
  %48 = zext i8 %47 to i32
  %49 = icmp eq i32 %48, 132
  br i1 %49, label %50, label %57

50:                                               ; preds = %46
  %51 = load ptr, ptr %6, align 8
  %52 = getelementptr inbounds nuw %struct._packet_info, ptr %51, i32 0, i32 51
  %53 = load ptr, ptr %52, align 8
  %54 = load i16, ptr %9, align 2
  %55 = zext i16 %54 to i32
  %56 = call ptr @sctp_port_to_display(ptr noundef %53, i32 noundef %55)
  store ptr %56, ptr %11, align 8
  br label %58

57:                                               ; preds = %46
  store i32 1, ptr %12, align 4
  br label %63

58:                                               ; preds = %50
  br label %59

59:                                               ; preds = %58, %39
  br label %60

60:                                               ; preds = %59, %22
  %61 = load ptr, ptr %10, align 8
  %62 = load ptr, ptr %11, align 8
  call void (ptr, ptr, ...) @proto_item_append_text(ptr noundef %61, ptr noundef @.str.4688, ptr noundef %62)
  store i32 0, ptr %12, align 4
  br label %63

63:                                               ; preds = %60, %57
  call void @llvm.lifetime.end.p0(i64 8, ptr %11) #16
  %64 = load i32, ptr %12, align 4
  switch i32 %64, label %66 [
    i32 0, label %65
    i32 1, label %65
  ]

65:                                               ; preds = %63, %63
  ret void

66:                                               ; preds = %63
  unreachable
}