; Function Attrs: null_pointer_is_valid sspstrong uwtable
define internal fastcc void @netflow_add_transport_info(ptr noundef readonly captures(none) %0, i64 noundef range(i64 0, 281474976677888) %1, i8 noundef zeroext %2, i16 noundef zeroext %3, ptr noundef %4) unnamed_addr #0 {
  %6 = icmp eq i8 %2, 17
  %7 = and i64 %1, 281474976710654
  %8 = icmp eq i64 %7, 180
  %or.cond3 = or i1 %6, %8
  br i1 %or.cond3, label %9, label %14

9:                                                ; preds = %5
  %10 = getelementptr inbounds nuw i8, ptr %0, i64 408
  %11 = load ptr, ptr %10, align 8
  %12 = zext i16 %3 to i32
  %13 = tail call ptr @udp_port_to_display(ptr noundef %11, i32 noundef %12)
  br label %29

14:                                               ; preds = %5
  %15 = icmp eq i8 %2, 6
  %16 = icmp eq i64 %7, 182
  %or.cond7 = or i1 %15, %16
  br i1 %or.cond7, label %17, label %22

17:                                               ; preds = %14
  %18 = getelementptr inbounds nuw i8, ptr %0, i64 408
  %19 = load ptr, ptr %18, align 8
  %20 = zext i16 %3 to i32
  %21 = tail call ptr @tcp_port_to_display(ptr noundef %19, i32 noundef %20)
  br label %29

22:                                               ; preds = %14
  %23 = icmp eq i8 %2, -124
  br i1 %23, label %24, label %30

24:                                               ; preds = %22
  %25 = getelementptr inbounds nuw i8, ptr %0, i64 408
  %26 = load ptr, ptr %25, align 8
  %27 = zext i16 %3 to i32
  %28 = tail call ptr @sctp_port_to_display(ptr noundef %26, i32 noundef %27)
  br label %29

29:                                               ; preds = %17, %24, %9
  %.0 = phi ptr [ %13, %9 ], [ %21, %17 ], [ %28, %24 ]
  tail call void (ptr, ptr, ...) @proto_item_append_text(ptr noundef %4, ptr noundef nonnull @.str.4688, ptr noundef %.0)
  br label %30

30:                                               ; preds = %22, %29
  ret void
}